; Function Attrs: uwtable
define noundef i32 @_ZThn16_NK18FilterEmbreePlugin13postConditionEPK7QAction(ptr noundef %0, ptr noundef %1) unnamed_addr #13 align 2 {
  %3 = load ptr, ptr %0, align 8
  %4 = getelementptr inbounds i8, ptr %3, i64 144
  %5 = load ptr, ptr %4, align 8
  %6 = tail call noundef i32 %5(ptr noundef nonnull align 8 dereferenceable(64) %0, ptr noundef %1)
  %switch.selectcmp.i = icmp eq i32 %6, 3
  %switch.select.i = select i1 %switch.selectcmp.i, i32 33554432, i32 65552
  %switch.selectcmp2.i = icmp eq i32 %6, 4
  %switch.select3.i = select i1 %switch.selectcmp2.i, i32 1126071271, i32 %switch.select.i
  ret i32 %switch.select3.i
}